; Function Attrs: nounwind uwtable
define ptr @cs_ddone(ptr noundef %0, ptr noundef %1, ptr noundef %2, i32 noundef %3) local_unnamed_addr #0 {
  %.not.i = icmp eq ptr %1, null
  br i1 %.not.i, label %cs_spfree.exit, label %5

5:                                                ; preds = %4
  %6 = getelementptr inbounds nuw i8, ptr %1, i64 16
  %7 = load ptr, ptr %6, align 8, !tbaa !14
  %8 = tail call ptr @cs_free(ptr noundef %7) #4
  %9 = getelementptr inbounds nuw i8, ptr %1, i64 24
  %10 = load ptr, ptr %9, align 8, !tbaa !15
  %11 = tail call ptr @cs_free(ptr noundef %10) #4
  %12 = getelementptr inbounds nuw i8, ptr %1, i64 32
  %13 = load ptr, ptr %12, align 8, !tbaa !16
  %14 = tail call ptr @cs_free(ptr noundef %13) #4
  %15 = tail call ptr @cs_free(ptr noundef nonnull %1) #4
  br label %cs_spfree.exit

cs_spfree.exit:                                   ; preds = %4, %5
  %16 = tail call ptr @cs_free(ptr noundef %2) #4
  %.not = icmp eq i32 %3, 0
  br i1 %.not, label %17, label %cs_dfree.exit

17:                                               ; preds = %cs_spfree.exit
  %.not.i4 = icmp eq ptr %0, null
  br i1 %.not.i4, label %cs_dfree.exit, label %18

18:                                               ; preds = %17
  %19 = load ptr, ptr %0, align 8, !tbaa !31
  %20 = tail call ptr @cs_free(ptr noundef %19) #4
  %21 = getelementptr inbounds nuw i8, ptr %0, i64 8
  %22 = load ptr, ptr %21, align 8, !tbaa !34
  %23 = tail call ptr @cs_free(ptr noundef %22) #4
  %24 = getelementptr inbounds nuw i8, ptr %0, i64 16
  %25 = load ptr, ptr %24, align 8, !tbaa !33
  %26 = tail call ptr @cs_free(ptr noundef %25) #4
  %27 = getelementptr inbounds nuw i8, ptr %0, i64 24
  %28 = load ptr, ptr %27, align 8, !tbaa !35
  %29 = tail call ptr @cs_free(ptr noundef %28) #4
  %30 = tail call ptr @cs_free(ptr noundef nonnull %0) #4
  br label %cs_dfree.exit

cs_dfree.exit:                                    ; preds = %18, %17, %cs_spfree.exit
  %31 = phi ptr [ %0, %cs_spfree.exit ], [ %30, %18 ], [ null, %17 ]
  ret ptr %31
}